target datalayout = "e-m:e-p270:32:32-p271:32:32-p272:64:64-i64:64-i128:128-f80:128-n8:16:32:64-S128"
target triple = "x86_64-pc-linux-gnu"

@hf_amqp_method_file_deliver_consumer_tag = internal global i32 0, align 4
@hf_amqp_method_file_deliver_delivery_tag = internal global i32 0, align 4
@hf_amqp_method_file_deliver_redelivered = internal global i32 0, align 4
@hf_amqp_method_file_deliver_exchange = internal global i32 0, align 4
@hf_amqp_method_file_deliver_routing_key = internal global i32 0, align 4
@hf_amqp_method_file_deliver_identifier = internal global i32 0, align 4

; Function Attrs: null_pointer_is_valid sspstrong uwtable
define internal i32 @dissect_amqp_0_9_method_file_deliver(ptr noundef %0, i32 noundef %1, ptr noundef %2) #0 {
  %4 = alloca ptr, align 8
  %5 = alloca i32, align 4
  %6 = alloca ptr, align 8
  store ptr %0, ptr %4, align 8
  store i32 %1, ptr %5, align 4
  store ptr %2, ptr %6, align 8
  %7 = load ptr, ptr %6, align 8
  %8 = load i32, ptr @hf_amqp_method_file_deliver_consumer_tag, align 4
  %9 = load ptr, ptr %4, align 8
  %10 = load i32, ptr %5, align 4
  %11 = add i32 %10, 1
  %12 = load ptr, ptr %4, align 8
  %13 = load i32, ptr %5, align 4
  %14 = call zeroext i8 @tvb_get_uint8(ptr noundef %12, i32 noundef %13)
  %15 = zext i8 %14 to i32
  %16 = call ptr @proto_tree_add_item(ptr noundef %7, i32 noundef %8, ptr noundef %9, i32 noundef %11, i32 noundef %15, i32 noundef 0)
  %17 = load ptr, ptr %4, align 8
  %18 = load i32, ptr %5, align 4
  %19 = call zeroext i8 @tvb_get_uint8(ptr noundef %17, i32 noundef %18)
  %20 = zext i8 %19 to i32
  %21 = add i32 1, %20
  %22 = load i32, ptr %5, align 4
  %23 = add i32 %22, %21
  store i32 %23, ptr %5, align 4
  %24 = load ptr, ptr %6, align 8
  %25 = load i32, ptr @hf_amqp_method_file_deliver_delivery_tag, align 4
  %26 = load ptr, ptr %4, align 8
  %27 = load i32, ptr %5, align 4
  %28 = call ptr @proto_tree_add_item(ptr noundef %24, i32 noundef %25, ptr noundef %26, i32 noundef %27, i32 noundef 8, i32 noundef 0)
  %29 = load i32, ptr %5, align 4
  %30 = add i32 %29, 8
  store i32 %30, ptr %5, align 4
  %31 = load ptr, ptr %6, align 8
  %32 = load i32, ptr @hf_amqp_method_file_deliver_redelivered, align 4
  %33 = load ptr, ptr %4, align 8
  %34 = load i32, ptr %5, align 4
  %35 = call ptr @proto_tree_add_item(ptr noundef %31, i32 noundef %32, ptr noundef %33, i32 noundef %34, i32 noundef 1, i32 noundef 0)
  %36 = load i32, ptr %5, align 4
  %37 = add i32 %36, 1
  store i32 %37, ptr %5, align 4
  %38 = load ptr, ptr %6, align 8
  %39 = load i32, ptr @hf_amqp_method_file_deliver_exchange, align 4
  %40 = load ptr, ptr %4, align 8
  %41 = load i32, ptr %5, align 4
  %42 = add i32 %41, 1
  %43 = load ptr, ptr %4, align 8
  %44 = load i32, ptr %5, align 4
  %45 = call zeroext i8 @tvb_get_uint8(ptr noundef %43, i32 noundef %44)
  %46 = zext i8 %45 to i32
  %47 = call ptr @proto_tree_add_item(ptr noundef %38, i32 noundef %39, ptr noundef %40, i32 noundef %42, i32 noundef %46, i32 noundef 0)
  %48 = load ptr, ptr %4, align 8
  %49 = load i32, ptr %5, align 4
  %50 = call zeroext i8 @tvb_get_uint8(ptr noundef %48, i32 noundef %49)
  %51 = zext i8 %50 to i32
  %52 = add i32 1, %51
  %53 = load i32, ptr %5, align 4
  %54 = add i32 %53, %52
  store i32 %54, ptr %5, align 4
  %55 = load ptr, ptr %6, align 8
  %56 = load i32, ptr @hf_amqp_method_file_deliver_routing_key, align 4
  %57 = load ptr, ptr %4, align 8
  %58 = load i32, ptr %5, align 4
  %59 = add i32 %58, 1
  %60 = load ptr, ptr %4, align 8
  %61 = load i32, ptr %5, align 4
  %62 = call zeroext i8 @tvb_get_uint8(ptr noundef %60, i32 noundef %61)
  %63 = zext i8 %62 to i32
  %64 = call ptr @proto_tree_add_item(ptr noundef %55, i32 noundef %56, ptr noundef %57, i32 noundef %59, i32 noundef %63, i32 noundef 0)
  %65 = load ptr, ptr %4, align 8
  %66 = load i32, ptr %5, align 4
  %67 = call zeroext i8 @tvb_get_uint8(ptr noundef %65, i32 noundef %66)
  %68 = zext i8 %67 to i32
  %69 = add i32 1, %68
  %70 = load i32, ptr %5, align 4
  %71 = add i32 %70, %69
  store i32 %71, ptr %5, align 4
  %72 = load ptr, ptr %6, align 8
  %73 = load i32, ptr @hf_amqp_method_file_deliver_identifier, align 4
  %74 = load ptr, ptr %4, align 8
  %75 = load i32, ptr %5, align 4
  %76 = add i32 %75, 1
  %77 = load ptr, ptr %4, align 8
  %78 = load i32, ptr %5, align 4
  %79 = call zeroext i8 @tvb_get_uint8(ptr noundef %77, i32 noundef %78)
  %80 = zext i8 %79 to i32
  %81 = call ptr @proto_tree_add_item(ptr noundef %72, i32 noundef %73, ptr noundef %74, i32 noundef %76, i32 noundef %80, i32 noundef 0)
  %82 = load ptr, ptr %4, align 8
  %83 = load i32, ptr %5, align 4
  %84 = call zeroext i8 @tvb_get_uint8(ptr noundef %82, i32 noundef %83)
  %85 = zext i8 %84 to i32
  %86 = add i32 1, %85
  %87 = load i32, ptr %5, align 4
  %88 = add i32 %87, %86
  store i32 %88, ptr %5, align 4
  %89 = load i32, ptr %5, align 4
  ret i32 %89
}