; Function Attrs: null_pointer_is_valid sspstrong uwtable
define internal fastcc void @dissect_amqp_0_9_method_file_deliver(ptr noundef %0, ptr noundef %1) unnamed_addr #0 {
  %3 = load i32, ptr @hf_amqp_method_file_deliver_consumer_tag, align 4
  %4 = tail call zeroext i8 @tvb_get_uint8(ptr noundef %0, i32 noundef 11)
  %5 = zext i8 %4 to i32
  %6 = tail call ptr @proto_tree_add_item(ptr noundef %1, i32 noundef %3, ptr noundef %0, i32 noundef 12, i32 noundef %5, i32 noundef 0)
  %7 = tail call zeroext i8 @tvb_get_uint8(ptr noundef %0, i32 noundef 11)
  %8 = zext i8 %7 to i32
  %9 = add nuw nsw i32 %8, 12
  %10 = load i32, ptr @hf_amqp_method_file_deliver_delivery_tag, align 4
  %11 = tail call ptr @proto_tree_add_item(ptr noundef %1, i32 noundef %10, ptr noundef %0, i32 noundef %9, i32 noundef 8, i32 noundef 0)
  %12 = add nuw nsw i32 %8, 20
  %13 = load i32, ptr @hf_amqp_method_file_deliver_redelivered, align 4
  %14 = tail call ptr @proto_tree_add_item(ptr noundef %1, i32 noundef %13, ptr noundef %0, i32 noundef %12, i32 noundef 1, i32 noundef 0)
  %15 = add nuw nsw i32 %8, 21
  %16 = load i32, ptr @hf_amqp_method_file_deliver_exchange, align 4
  %17 = add nuw nsw i32 %8, 22
  %18 = tail call zeroext i8 @tvb_get_uint8(ptr noundef %0, i32 noundef %15)
  %19 = zext i8 %18 to i32
  %20 = tail call ptr @proto_tree_add_item(ptr noundef %1, i32 noundef %16, ptr noundef %0, i32 noundef %17, i32 noundef %19, i32 noundef 0)
  %21 = tail call zeroext i8 @tvb_get_uint8(ptr noundef %0, i32 noundef %15)
  %22 = zext i8 %21 to i32
  %23 = add nuw nsw i32 %17, %22
  %24 = load i32, ptr @hf_amqp_method_file_deliver_routing_key, align 4
  %25 = add nuw nsw i32 %23, 1
  %26 = tail call zeroext i8 @tvb_get_uint8(ptr noundef %0, i32 noundef %23)
  %27 = zext i8 %26 to i32
  %28 = tail call ptr @proto_tree_add_item(ptr noundef %1, i32 noundef %24, ptr noundef %0, i32 noundef %25, i32 noundef %27, i32 noundef 0)
  %29 = tail call zeroext i8 @tvb_get_uint8(ptr noundef %0, i32 noundef %23)
  %30 = zext i8 %29 to i32
  %31 = add nuw nsw i32 %25, %30
  %32 = load i32, ptr @hf_amqp_method_file_deliver_identifier, align 4
  %33 = add nuw nsw i32 %31, 1
  %34 = tail call zeroext i8 @tvb_get_uint8(ptr noundef %0, i32 noundef %31)
  %35 = zext i8 %34 to i32
  %36 = tail call ptr @proto_tree_add_item(ptr noundef %1, i32 noundef %32, ptr noundef %0, i32 noundef %33, i32 noundef %35, i32 noundef 0)
  %37 = tail call zeroext i8 @tvb_get_uint8(ptr noundef %0, i32 noundef %31)
  ret void
}